; Function Attrs: mustprogress nofree nounwind willreturn memory(read) uwtable
define internal noundef zeroext i1 @_ZNK5clang12_GLOBAL__N_18internal32matcher_canResolveToExpr0Matcher7matchesERKNS_4StmtEPNS_12ast_matchers8internal14ASTMatchFinderEPNS7_21BoundNodesTreeBuilderE(ptr noundef nonnull readonly align 8 captures(none) dereferenceable(24) %0, ptr noundef nonnull readonly align 8 dereferenceable(8) %1, ptr readnone captures(none) %2, ptr readnone captures(none) %3) unnamed_addr #10 align 2 {
  %5 = load i8, ptr %1, align 8
  %6 = add i8 %5, 126
  %spec.select.i.i.i.i.i.i.i.i = icmp ult i8 %6, -127
  br i1 %spec.select.i.i.i.i.i.i.i.i, label %14, label %7

7:                                                ; preds = %4
  %8 = getelementptr inbounds nuw i8, ptr %0, i64 16
  %9 = load ptr, ptr %8, align 8
  %10 = load i8, ptr %9, align 8
  %11 = add i8 %10, 126
  %spec.select.i.i.i.i.i.i.i.i10 = icmp ult i8 %11, -127
  br i1 %spec.select.i.i.i.i.i.i.i.i10, label %14, label %12

12:                                               ; preds = %7
  %13 = tail call fastcc noundef zeroext i1 @_ZN5clangL16canExprResolveToEPKNS_4ExprES2_(ptr noundef %1, ptr noundef nonnull %9)
  br label %14

14:                                               ; preds = %7, %4, %12
  %.0 = phi i1 [ %13, %12 ], [ true, %4 ], [ false, %7 ]
  ret i1 %.0
}